; ModuleID = 'source-C-CXX/2/1331.c'
source_filename = "source-C-CXX/2/1331.c"
target datalayout = "e-m:e-p270:32:32-p271:32:32-p272:64:64-i64:64-f80:128-n8:16:32:64-S128"
target triple = "x86_64-pc-linux-gnu"

@.str = private unnamed_addr constant [6 x i8] c"%d %d\00", align 1
@.str.1 = private unnamed_addr constant [4 x i8] c"%d \00", align 1
@.str.2 = private unnamed_addr constant [3 x i8] c"%d\00", align 1
@.str.3 = private unnamed_addr constant [4 x i8] c"yes\00", align 1
@.str.4 = private unnamed_addr constant [3 x i8] c"no\00", align 1

; Function Attrs: nofree nounwind sspstrong uwtable
define dso_local i32 @main() local_unnamed_addr #0 {
  %1 = alloca i32, align 4
  %2 = alloca i32, align 4
  %3 = alloca [10000 x i32], align 16
  %4 = bitcast i32* %1 to i8*
  call void @llvm.lifetime.start.p0i8(i64 4, i8* nonnull %4) #3
  %5 = bitcast i32* %2 to i8*
  call void @llvm.lifetime.start.p0i8(i64 4, i8* nonnull %5) #3
  %6 = bitcast [10000 x i32]* %3 to i8*
  call void @llvm.lifetime.start.p0i8(i64 40000, i8* nonnull %6) #3
  %7 = call i32 (i8*, ...) @__isoc99_scanf(i8* getelementptr inbounds ([6 x i8], [6 x i8]* @.str, i64 0, i64 0), i32* nonnull %1, i32* nonnull %2)
  %8 = load i32, i32* %1, align 4, !tbaa !5
  %9 = add nsw i32 %8, -1
  %10 = icmp sgt i32 %8, 1
  br i1 %10, label %11, label %20

11:                                               ; preds = %0, %11
  %12 = phi i64 [ %15, %11 ], [ 0, %0 ]
  %13 = getelementptr inbounds [10000 x i32], [10000 x i32]* %3, i64 0, i64 %12
  %14 = call i32 (i8*, ...) @__isoc99_scanf(i8* getelementptr inbounds ([4 x i8], [4 x i8]* @.str.1, i64 0, i64 0), i32* nonnull %13)
  %15 = add nuw nsw i64 %12, 1
  %16 = load i32, i32* %1, align 4, !tbaa !5
  %17 = add nsw i32 %16, -1
  %18 = sext i32 %17 to i64
  %19 = icmp slt i64 %15, %18
  br i1 %19, label %11, label %20, !llvm.loop !9

20:                                               ; preds = %11, %0
  %21 = phi i32 [ %8, %0 ], [ %16, %11 ]
  %22 = phi i32 [ %9, %0 ], [ %17, %11 ]
  %23 = icmp eq i32 %22, 0
  br i1 %23, label %29, label %24

24:                                               ; preds = %20
  %25 = sext i32 %22 to i64
  %26 = getelementptr inbounds [10000 x i32], [10000 x i32]* %3, i64 0, i64 %25
  %27 = call i32 (i8*, ...) @__isoc99_scanf(i8* getelementptr inbounds ([3 x i8], [3 x i8]* @.str.2, i64 0, i64 0), i32* nonnull %26)
  %28 = load i32, i32* %1, align 4, !tbaa !5
  br label %29

29:                                               ; preds = %24, %20
  %30 = phi i32 [ %28, %24 ], [ %21, %20 ]
  %31 = load i32, i32* %2, align 4
  %32 = icmp sgt i32 %30, 0
  br i1 %32, label %33, label %60

33:                                               ; preds = %29
  %34 = zext i32 %30 to i64
  %35 = zext i32 %30 to i64
  br label %36

36:                                               ; preds = %33, %54
  %37 = phi i64 [ 0, %33 ], [ %40, %54 ]
  %38 = phi i64 [ 1, %33 ], [ %56, %54 ]
  %39 = phi i32 [ 0, %33 ], [ %55, %54 ]
  %40 = add nuw nsw i64 %37, 1
  %41 = icmp ult i64 %40, %34
  br i1 %41, label %42, label %54

42:                                               ; preds = %36
  %43 = getelementptr inbounds [10000 x i32], [10000 x i32]* %3, i64 0, i64 %37
  %44 = load i32, i32* %43, align 4, !tbaa !5
  br label %47

45:                                               ; preds = %47
  %46 = icmp eq i64 %53, %35
  br i1 %46, label %54, label %47, !llvm.loop !11

47:                                               ; preds = %42, %45
  %48 = phi i64 [ %38, %42 ], [ %53, %45 ]
  %49 = getelementptr inbounds [10000 x i32], [10000 x i32]* %3, i64 0, i64 %48
  %50 = load i32, i32* %49, align 4, !tbaa !5
  %51 = add nsw i32 %50, %44
  %52 = icmp eq i32 %51, %31
  %53 = add nuw nsw i64 %48, 1
  br i1 %52, label %54, label %45

54:                                               ; preds = %45, %47, %36
  %55 = phi i32 [ %39, %36 ], [ 1, %47 ], [ %39, %45 ]
  %56 = add nuw nsw i64 %38, 1
  %57 = icmp eq i64 %40, %35
  br i1 %57, label %58, label %36, !llvm.loop !12

58:                                               ; preds = %54
  %59 = icmp eq i32 %55, 1
  br i1 %59, label %61, label %60

60:                                               ; preds = %29, %58
  br label %61

61:                                               ; preds = %58, %60
  %62 = phi i8* [ getelementptr inbounds ([3 x i8], [3 x i8]* @.str.4, i64 0, i64 0), %60 ], [ getelementptr inbounds ([4 x i8], [4 x i8]* @.str.3, i64 0, i64 0), %58 ]
  %63 = call i32 (i8*, ...) @printf(i8* nonnull dereferenceable(1) %62)
  call void @llvm.lifetime.end.p0i8(i64 40000, i8* nonnull %6) #3
  call void @llvm.lifetime.end.p0i8(i64 4, i8* nonnull %5) #3
  call void @llvm.lifetime.end.p0i8(i64 4, i8* nonnull %4) #3
  ret i32 0
}

; Function Attrs: argmemonly mustprogress nofree nosync nounwind willreturn
declare void @llvm.lifetime.start.p0i8(i64 immarg, i8* nocapture) #1

; Function Attrs: nofree nounwind
declare noundef i32 @__isoc99_scanf(i8* nocapture noundef readonly, ...) local_unnamed_addr #2

; Function Attrs: nofree nounwind
declare noundef i32 @printf(i8* nocapture noundef readonly, ...) local_unnamed_addr #2

; Function Attrs: argmemonly mustprogress nofree nosync nounwind willreturn
declare void @llvm.lifetime.end.p0i8(i64 immarg, i8* nocapture) #1


!llvm.module.flags = !{!0, !1, !2, !3}
!llvm.ident = !{!4}

!0 = !{i32 1, !"wchar_size", i32 4}
!1 = !{i32 7, !"PIC Level", i32 2}
!2 = !{i32 7, !"PIE Level", i32 2}
!3 = !{i32 7, !"uwtable", i32 1}
!4 = !{!"clang version 13.0.0"}
!5 = !{!6, !6, i64 0}
!6 = !{!"int", !7, i64 0}
!7 = !{!"omnipotent char", !8, i64 0}
!8 = !{!"Simple C/C++ TBAA"}
!9 = distinct !{!9, !10}
!10 = !{!"llvm.loop.mustprogress"}
!11 = distinct !{!11, !10}
!12 = distinct !{!12, !10}
